; Function Attrs: mustprogress nounwind uwtable
define hidden void @_ZN4llvh23SmallVectorMemoryBufferD0Ev(ptr noundef nonnull align 8 dereferenceable(72) %this) unnamed_addr #4 align 2 {
entry:
  store ptr getelementptr inbounds ({ [6 x ptr] }, ptr @_ZTVN4llvh23SmallVectorMemoryBufferE, i64 0, i32 0, i64 2), ptr %this, align 8
  %BufferName.i = getelementptr inbounds i8, ptr %this, i64 40
  tail call void @_ZNSt7__cxx1112basic_stringIcSt11char_traitsIcESaIcEED1Ev(ptr noundef nonnull align 8 dereferenceable(32) %BufferName.i) #22
  %SV.i = getelementptr inbounds i8, ptr %this, i64 24
  %0 = load ptr, ptr %SV.i, align 8
  %cmp.i.i.i.i = icmp eq ptr %0, %BufferName.i
  br i1 %cmp.i.i.i.i, label %_ZN4llvh23SmallVectorMemoryBufferD2Ev.exit, label %if.then.i.i.i

if.then.i.i.i:                                    ; preds = %entry
  tail call void @free(ptr noundef %0) #22
  br label %_ZN4llvh23SmallVectorMemoryBufferD2Ev.exit

_ZN4llvh23SmallVectorMemoryBufferD2Ev.exit:       ; preds = %entry, %if.then.i.i.i
  tail call void @_ZdlPv(ptr noundef nonnull %this) #25
  ret void
}